target datalayout = "e-m:e-p270:32:32-p271:32:32-p272:64:64-i64:64-i128:128-f80:128-n8:16:32:64-S128"
target triple = "x86_64-pc-linux-gnu"

%struct._address = type { i32, i32, ptr, ptr }
%struct.lbttcp_transport_conv_data_t = type { ptr, ptr }

@lbttcp_null_address = internal constant %struct._address zeroinitializer, align 8
@proto_lbttcp = internal global i32 0, align 4

; Function Attrs: null_pointer_is_valid sspstrong uwtable
define hidden ptr @lbttcp_transport_add(ptr noundef %0, i16 noundef zeroext %1, i32 noundef %2, i32 noundef %3) #0 {
  %5 = alloca ptr, align 8
  %6 = alloca ptr, align 8
  %7 = alloca i16, align 2
  %8 = alloca i32, align 4
  %9 = alloca i32, align 4
  %10 = alloca ptr, align 8
  %11 = alloca ptr, align 8
  %12 = alloca ptr, align 8
  %13 = alloca i32, align 4
  store ptr %0, ptr %6, align 8
  store i16 %1, ptr %7, align 2
  store i32 %2, ptr %8, align 4
  store i32 %3, ptr %9, align 4
  call void @llvm.lifetime.start.p0(i64 8, ptr %10) #9
  store ptr null, ptr %10, align 8
  call void @llvm.lifetime.start.p0(i64 8, ptr %11) #9
  store ptr null, ptr %11, align 8
  call void @llvm.lifetime.start.p0(i64 8, ptr %12) #9
  store ptr null, ptr %12, align 8
  %14 = load i32, ptr %9, align 4
  %15 = load ptr, ptr %6, align 8
  %16 = load i16, ptr %7, align 2
  %17 = zext i16 %16 to i32
  %18 = call ptr @find_conversation(i32 noundef %14, ptr noundef %15, ptr noundef @lbttcp_null_address, i32 noundef 2, i32 noundef %17, i32 noundef 0, i32 noundef 0)
  store ptr %18, ptr %11, align 8
  %19 = load ptr, ptr %11, align 8
  %20 = icmp eq ptr %19, null
  br i1 %20, label %21, label %27

21:                                               ; preds = %4
  %22 = load i32, ptr %9, align 4
  %23 = load ptr, ptr %6, align 8
  %24 = load i16, ptr %7, align 2
  %25 = zext i16 %24 to i32
  %26 = call ptr @conversation_new(i32 noundef %22, ptr noundef %23, ptr noundef @lbttcp_null_address, i32 noundef 2, i32 noundef %25, i32 noundef 0, i32 noundef 0)
  store ptr %26, ptr %11, align 8
  br label %27

27:                                               ; preds = %21, %4
  %28 = load ptr, ptr %11, align 8
  %29 = load i32, ptr @proto_lbttcp, align 4
  %30 = call ptr @conversation_get_proto_data(ptr noundef %28, i32 noundef %29)
  store ptr %30, ptr %12, align 8
  %31 = load ptr, ptr %12, align 8
  %32 = icmp eq ptr %31, null
  br i1 %32, label %33, label %47

33:                                               ; preds = %27
  %34 = call ptr @wmem_file_scope()
  %35 = call noalias ptr @wmem_alloc(ptr noundef %34, i64 noundef 16) #10
  store ptr %35, ptr %12, align 8
  %36 = call ptr @wmem_file_scope()
  %37 = call noalias ptr @wmem_tree_new(ptr noundef %36)
  %38 = load ptr, ptr %12, align 8
  %39 = getelementptr inbounds nuw %struct.lbttcp_transport_conv_data_t, ptr %38, i32 0, i32 0
  store ptr %37, ptr %39, align 8
  %40 = call ptr @wmem_file_scope()
  %41 = call noalias ptr @wmem_tree_new(ptr noundef %40)
  %42 = load ptr, ptr %12, align 8
  %43 = getelementptr inbounds nuw %struct.lbttcp_transport_conv_data_t, ptr %42, i32 0, i32 1
  store ptr %41, ptr %43, align 8
  %44 = load ptr, ptr %11, align 8
  %45 = load i32, ptr @proto_lbttcp, align 4
  %46 = load ptr, ptr %12, align 8
  call void @conversation_add_proto_data(ptr noundef %44, i32 noundef %45, ptr noundef %46)
  br label %47

47:                                               ; preds = %33, %27
  %48 = load ptr, ptr %12, align 8
  %49 = getelementptr inbounds nuw %struct.lbttcp_transport_conv_data_t, ptr %48, i32 0, i32 1
  %50 = load ptr, ptr %49, align 8
  %51 = load i32, ptr %8, align 4
  %52 = call ptr @wmem_tree_lookup32(ptr noundef %50, i32 noundef %51)
  store ptr %52, ptr %10, align 8
  %53 = load ptr, ptr %10, align 8
  %54 = icmp ne ptr %53, null
  br i1 %54, label %55, label %57

55:                                               ; preds = %47
  %56 = load ptr, ptr %10, align 8
  store ptr %56, ptr %5, align 8
  store i32 1, ptr %13, align 4
  br label %73

57:                                               ; preds = %47
  %58 = load ptr, ptr %6, align 8
  %59 = load i16, ptr %7, align 2
  %60 = load i32, ptr %8, align 4
  %61 = call ptr @lbttcp_transport_create(ptr noundef %58, i16 noundef zeroext %59, i32 noundef %60)
  store ptr %61, ptr %10, align 8
  %62 = load ptr, ptr %12, align 8
  %63 = getelementptr inbounds nuw %struct.lbttcp_transport_conv_data_t, ptr %62, i32 0, i32 1
  %64 = load ptr, ptr %63, align 8
  %65 = load i32, ptr %8, align 4
  %66 = load ptr, ptr %10, align 8
  call void @wmem_tree_insert32(ptr noundef %64, i32 noundef %65, ptr noundef %66)
  %67 = load ptr, ptr %12, align 8
  %68 = getelementptr inbounds nuw %struct.lbttcp_transport_conv_data_t, ptr %67, i32 0, i32 0
  %69 = load ptr, ptr %68, align 8
  %70 = load i32, ptr %9, align 4
  %71 = load ptr, ptr %10, align 8
  call void @wmem_tree_insert32(ptr noundef %69, i32 noundef %70, ptr noundef %71)
  %72 = load ptr, ptr %10, align 8
  store ptr %72, ptr %5, align 8
  store i32 1, ptr %13, align 4
  br label %73

73:                                               ; preds = %57, %55
  call void @llvm.lifetime.end.p0(i64 8, ptr %12) #9
  call void @llvm.lifetime.end.p0(i64 8, ptr %11) #9
  call void @llvm.lifetime.end.p0(i64 8, ptr %10) #9
  %74 = load ptr, ptr %5, align 8
  ret ptr %74
}