; Function Attrs: null_pointer_is_valid sspstrong uwtable
define hidden ptr @lbttcp_transport_add(ptr noundef %0, i16 noundef zeroext %1, i32 noundef %2, i32 noundef %3) local_unnamed_addr #0 {
  %5 = zext i16 %1 to i32
  %6 = tail call ptr @find_conversation(i32 noundef %3, ptr noundef %0, ptr noundef nonnull @lbttcp_null_address, i32 noundef 2, i32 noundef %5, i32 noundef 0, i32 noundef 0)
  %7 = icmp eq ptr %6, null
  br i1 %7, label %8, label %10

8:                                                ; preds = %4
  %9 = tail call ptr @conversation_new(i32 noundef %3, ptr noundef %0, ptr noundef nonnull @lbttcp_null_address, i32 noundef 2, i32 noundef %5, i32 noundef 0, i32 noundef 0)
  br label %10

10:                                               ; preds = %8, %4
  %.027 = phi ptr [ %9, %8 ], [ %6, %4 ]
  %11 = load i32, ptr @proto_lbttcp, align 4
  %12 = tail call ptr @conversation_get_proto_data(ptr noundef %.027, i32 noundef %11)
  %13 = icmp eq ptr %12, null
  br i1 %13, label %14, label %23

14:                                               ; preds = %10
  %15 = tail call ptr @wmem_file_scope()
  %16 = tail call noalias dereferenceable_or_null(16) ptr @wmem_alloc(ptr noundef %15, i64 noundef 16) #7
  %17 = tail call ptr @wmem_file_scope()
  %18 = tail call noalias ptr @wmem_tree_new(ptr noundef %17)
  store ptr %18, ptr %16, align 8
  %19 = tail call ptr @wmem_file_scope()
  %20 = tail call noalias ptr @wmem_tree_new(ptr noundef %19)
  %21 = getelementptr inbounds nuw i8, ptr %16, i64 8
  store ptr %20, ptr %21, align 8
  %22 = load i32, ptr @proto_lbttcp, align 4
  tail call void @conversation_add_proto_data(ptr noundef %.027, i32 noundef %22, ptr noundef %16)
  br label %23

23:                                               ; preds = %14, %10
  %.0 = phi ptr [ %16, %14 ], [ %12, %10 ]
  %24 = getelementptr inbounds nuw i8, ptr %.0, i64 8
  %25 = load ptr, ptr %24, align 8
  %26 = tail call ptr @wmem_tree_lookup32(ptr noundef %25, i32 noundef %2)
  %.not = icmp eq ptr %26, null
  br i1 %.not, label %27, label %31

27:                                               ; preds = %23
  %28 = tail call fastcc ptr @lbttcp_transport_create(ptr noundef %0, i16 noundef zeroext %1, i32 noundef %2)
  %29 = load ptr, ptr %24, align 8
  tail call void @wmem_tree_insert32(ptr noundef %29, i32 noundef %2, ptr noundef %28)
  %30 = load ptr, ptr %.0, align 8
  tail call void @wmem_tree_insert32(ptr noundef %30, i32 noundef %3, ptr noundef %28)
  br label %31

31:                                               ; preds = %23, %27
  %.028 = phi ptr [ %28, %27 ], [ %26, %23 ]
  ret ptr %.028
}